target datalayout = "e-m:e-p270:32:32-p271:32:32-p272:64:64-i64:64-i128:128-f80:128-n8:16:32:64-S128"
target triple = "x86_64-pc-linux-gnu"

%"class.cv::utils::trace::details::Region" = type <{ ptr, i32, [4 x i8] }>
%"struct.cv::cpu_baseline::NormL2_SIMD.19" = type { i8 }

; Function Attrs: inlinehint mustprogress nounwind uwtable
define linkonce_odr hidden noundef double @_ZNK2cv12cpu_baseline11NormL2_SIMDIddEclEPKdi(ptr noundef nonnull align 1 dereferenceable(1) %0, ptr noundef %1, i32 noundef %2) #3 comdat align 2 {
  %4 = alloca ptr, align 8
  %5 = alloca ptr, align 8
  %6 = alloca i32, align 4
  %7 = alloca double, align 8
  %8 = alloca i32, align 4
  %9 = alloca double, align 8
  store ptr %0, ptr %4, align 8, !tbaa !195
  store ptr %1, ptr %5, align 8, !tbaa !17
  store i32 %2, ptr %6, align 4, !tbaa !3
  call void @llvm.lifetime.start.p0(i64 8, ptr %7) #15
  store double 0.000000e+00, ptr %7, align 8, !tbaa !47
  call void @llvm.lifetime.start.p0(i64 4, ptr %8) #15
  store i32 0, ptr %8, align 4, !tbaa !3
  br label %10

10:                                               ; preds = %25, %3
  %11 = load i32, ptr %8, align 4, !tbaa !3
  %12 = load i32, ptr %6, align 4, !tbaa !3
  %13 = icmp slt i32 %11, %12
  br i1 %13, label %15, label %14

14:                                               ; preds = %10
  call void @llvm.lifetime.end.p0(i64 4, ptr %8) #15
  br label %28

15:                                               ; preds = %10
  call void @llvm.lifetime.start.p0(i64 8, ptr %9) #15
  %16 = load ptr, ptr %5, align 8, !tbaa !17
  %17 = load i32, ptr %8, align 4, !tbaa !3
  %18 = sext i32 %17 to i64
  %19 = getelementptr inbounds double, ptr %16, i64 %18
  %20 = load double, ptr %19, align 8, !tbaa !47
  store double %20, ptr %9, align 8, !tbaa !47
  %21 = load double, ptr %9, align 8, !tbaa !47
  %22 = load double, ptr %9, align 8, !tbaa !47
  %23 = load double, ptr %7, align 8, !tbaa !47
  %24 = call double @llvm.fmuladd.f64(double %21, double %22, double %23)
  store double %24, ptr %7, align 8, !tbaa !47
  call void @llvm.lifetime.end.p0(i64 8, ptr %9) #15
  br label %25

25:                                               ; preds = %15
  %26 = load i32, ptr %8, align 4, !tbaa !3
  %27 = add nsw i32 %26, 1
  store i32 %27, ptr %8, align 4, !tbaa !3
  br label %10, !llvm.loop !197

28:                                               ; preds = %14
  %29 = load double, ptr %7, align 8, !tbaa !47
  call void @llvm.lifetime.end.p0(i64 8, ptr %7) #15
  ret double %29
}

; Function Attrs: inlinehint mustprogress nounwind uwtable
define linkonce_odr hidden void @_ZN2cv5utils5trace7details6RegionD2Ev(ptr noundef nonnull align 8 dereferenceable(12) %0) unnamed_addr #3 comdat align 2 personality ptr @__gxx_personality_v0 {
  %2 = alloca ptr, align 8
  store ptr %0, ptr %2, align 8, !tbaa !19
  %3 = load ptr, ptr %2, align 8
  %4 = getelementptr inbounds nuw %"class.cv::utils::trace::details::Region", ptr %3, i32 0, i32 1
  %5 = load i32, ptr %4, align 8, !tbaa !21
  %6 = icmp ne i32 %5, 0
  br i1 %6, label %7, label %9

7:                                                ; preds = %1
  invoke void @_ZN2cv5utils5trace7details6Region7destroyEv(ptr noundef nonnull align 8 dereferenceable(12) %3)
          to label %8 unwind label %10

8:                                                ; preds = %7
  br label %9

9:                                                ; preds = %8, %1
  ret void

10:                                               ; preds = %7
  %11 = landingpad { ptr, i32 }
          catch ptr null
  %12 = extractvalue { ptr, i32 } %11, 0
  call void @__clang_call_terminate(ptr %12) #16
  unreachable
}

; Function Attrs: mustprogress uwtable
define linkonce_odr hidden noundef i32 @_ZN2cv12cpu_baseline7normL2_IddEEiPKT_PKhPT0_ii(ptr noundef %0, ptr noundef %1, ptr noundef %2, i32 noundef %3, i32 noundef %4) #0 comdat {
  %6 = alloca ptr, align 8
  %7 = alloca ptr, align 8
  %8 = alloca ptr, align 8
  %9 = alloca i32, align 4
  %10 = alloca i32, align 4
  %11 = alloca double, align 8
  %12 = alloca %"struct.cv::cpu_baseline::NormL2_SIMD.19", align 1
  %13 = alloca i32, align 4
  %14 = alloca i32, align 4
  %15 = alloca i32, align 4
  %16 = alloca double, align 8
  store ptr %0, ptr %6, align 8, !tbaa !17
  store ptr %1, ptr %7, align 8, !tbaa !9
  store ptr %2, ptr %8, align 8, !tbaa !17
  store i32 %3, ptr %9, align 4, !tbaa !3
  store i32 %4, ptr %10, align 4, !tbaa !3
  call void @llvm.lifetime.start.p0(i64 8, ptr %11) #15
  %17 = load ptr, ptr %8, align 8, !tbaa !17
  %18 = load double, ptr %17, align 8, !tbaa !47
  store double %18, ptr %11, align 8, !tbaa !47
  %19 = load ptr, ptr %7, align 8, !tbaa !9
  %20 = icmp ne ptr %19, null
  br i1 %20, label %29, label %21

21:                                               ; preds = %5
  call void @llvm.lifetime.start.p0(i64 1, ptr %12) #15
  %22 = load ptr, ptr %6, align 8, !tbaa !17
  %23 = load i32, ptr %9, align 4, !tbaa !3
  %24 = load i32, ptr %10, align 4, !tbaa !3
  %25 = mul nsw i32 %23, %24
  %26 = call noundef double @_ZNK2cv12cpu_baseline11NormL2_SIMDIddEclEPKdi(ptr noundef nonnull align 1 dereferenceable(1) %12, ptr noundef %22, i32 noundef %25)
  %27 = load double, ptr %11, align 8, !tbaa !47
  %28 = fadd double %27, %26
  store double %28, ptr %11, align 8, !tbaa !47
  call void @llvm.lifetime.end.p0(i64 1, ptr %12) #15
  br label %71

29:                                               ; preds = %5
  call void @llvm.lifetime.start.p0(i64 4, ptr %13) #15
  store i32 0, ptr %13, align 4, !tbaa !3
  br label %30

30:                                               ; preds = %63, %29
  %31 = load i32, ptr %13, align 4, !tbaa !3
  %32 = load i32, ptr %9, align 4, !tbaa !3
  %33 = icmp slt i32 %31, %32
  br i1 %33, label %35, label %34

34:                                               ; preds = %30
  store i32 2, ptr %14, align 4
  call void @llvm.lifetime.end.p0(i64 4, ptr %13) #15
  br label %70

35:                                               ; preds = %30
  %36 = load ptr, ptr %7, align 8, !tbaa !9
  %37 = load i32, ptr %13, align 4, !tbaa !3
  %38 = sext i32 %37 to i64
  %39 = getelementptr inbounds i8, ptr %36, i64 %38
  %40 = load i8, ptr %39, align 1, !tbaa !24
  %41 = icmp ne i8 %40, 0
  br i1 %41, label %42, label %62

42:                                               ; preds = %35
  call void @llvm.lifetime.start.p0(i64 4, ptr %15) #15
  store i32 0, ptr %15, align 4, !tbaa !3
  br label %43

43:                                               ; preds = %58, %42
  %44 = load i32, ptr %15, align 4, !tbaa !3
  %45 = load i32, ptr %10, align 4, !tbaa !3
  %46 = icmp slt i32 %44, %45
  br i1 %46, label %48, label %47

47:                                               ; preds = %43
  store i32 5, ptr %14, align 4
  call void @llvm.lifetime.end.p0(i64 4, ptr %15) #15
  br label %61

48:                                               ; preds = %43
  call void @llvm.lifetime.start.p0(i64 8, ptr %16) #15
  %49 = load ptr, ptr %6, align 8, !tbaa !17
  %50 = load i32, ptr %15, align 4, !tbaa !3
  %51 = sext i32 %50 to i64
  %52 = getelementptr inbounds double, ptr %49, i64 %51
  %53 = load double, ptr %52, align 8, !tbaa !47
  store double %53, ptr %16, align 8, !tbaa !47
  %54 = load double, ptr %16, align 8, !tbaa !47
  %55 = load double, ptr %16, align 8, !tbaa !47
  %56 = load double, ptr %11, align 8, !tbaa !47
  %57 = call double @llvm.fmuladd.f64(double %54, double %55, double %56)
  store double %57, ptr %11, align 8, !tbaa !47
  call void @llvm.lifetime.end.p0(i64 8, ptr %16) #15
  br label %58

58:                                               ; preds = %48
  %59 = load i32, ptr %15, align 4, !tbaa !3
  %60 = add nsw i32 %59, 1
  store i32 %60, ptr %15, align 4, !tbaa !3
  br label %43, !llvm.loop !193

61:                                               ; preds = %47
  br label %62

62:                                               ; preds = %61, %35
  br label %63

63:                                               ; preds = %62
  %64 = load i32, ptr %13, align 4, !tbaa !3
  %65 = add nsw i32 %64, 1
  store i32 %65, ptr %13, align 4, !tbaa !3
  %66 = load i32, ptr %10, align 4, !tbaa !3
  %67 = load ptr, ptr %6, align 8, !tbaa !17
  %68 = sext i32 %66 to i64
  %69 = getelementptr inbounds double, ptr %67, i64 %68
  store ptr %69, ptr %6, align 8, !tbaa !17
  br label %30, !llvm.loop !194

70:                                               ; preds = %34
  br label %71

71:                                               ; preds = %70, %21
  %72 = load double, ptr %11, align 8, !tbaa !47
  %73 = load ptr, ptr %8, align 8, !tbaa !17
  store double %72, ptr %73, align 8, !tbaa !47
  store i32 1, ptr %14, align 4
  call void @llvm.lifetime.end.p0(i64 8, ptr %11) #15
  ret i32 0
}

; Function Attrs: mustprogress uwtable
define internal noundef i32 @_ZN2cv12cpu_baselineL10normL2_64fEPKdPKhPdii(ptr noundef %0, ptr noundef %1, ptr noundef %2, i32 noundef %3, i32 noundef %4) #0 personality ptr @__gxx_personality_v0 {
  %6 = alloca ptr, align 8
  %7 = alloca ptr, align 8
  %8 = alloca ptr, align 8
  %9 = alloca i32, align 4
  %10 = alloca i32, align 4
  %11 = alloca %"class.cv::utils::trace::details::Region", align 8
  %12 = alloca ptr, align 8
  %13 = alloca i32, align 4
  store ptr %0, ptr %6, align 8, !tbaa !17
  store ptr %1, ptr %7, align 8, !tbaa !9
  store ptr %2, ptr %8, align 8, !tbaa !17
  store i32 %3, ptr %9, align 4, !tbaa !3
  store i32 %4, ptr %10, align 4, !tbaa !3
  call void @llvm.lifetime.start.p0(i64 16, ptr %11) #15
  call void @_ZN2cv5utils5trace7details6RegionC1ERKNS3_21LocationStaticStorageE(ptr noundef nonnull align 8 dereferenceable(12) %11, ptr noundef nonnull align 8 dereferenceable(32) @_ZZN2cv12cpu_baselineL10normL2_64fEPKdPKhPdiiE25__cv_trace_location_fn648)
  %14 = load ptr, ptr %6, align 8, !tbaa !17
  %15 = load ptr, ptr %7, align 8, !tbaa !9
  %16 = load ptr, ptr %8, align 8, !tbaa !17
  %17 = load i32, ptr %9, align 4, !tbaa !3
  %18 = load i32, ptr %10, align 4, !tbaa !3
  %19 = invoke noundef i32 @_ZN2cv12cpu_baseline7normL2_IddEEiPKT_PKhPT0_ii(ptr noundef %14, ptr noundef %15, ptr noundef %16, i32 noundef %17, i32 noundef %18)
          to label %20 unwind label %21

20:                                               ; preds = %5
  call void @_ZN2cv5utils5trace7details6RegionD2Ev(ptr noundef nonnull align 8 dereferenceable(12) %11) #15
  call void @llvm.lifetime.end.p0(i64 16, ptr %11) #15
  ret i32 %19

21:                                               ; preds = %5
  %22 = landingpad { ptr, i32 }
          cleanup
  %23 = extractvalue { ptr, i32 } %22, 0
  store ptr %23, ptr %12, align 8
  %24 = extractvalue { ptr, i32 } %22, 1
  store i32 %24, ptr %13, align 4
  call void @_ZN2cv5utils5trace7details6RegionD2Ev(ptr noundef nonnull align 8 dereferenceable(12) %11) #15
  call void @llvm.lifetime.end.p0(i64 16, ptr %11) #15
  br label %25

25:                                               ; preds = %21
  %26 = load ptr, ptr %12, align 8
  %27 = load i32, ptr %13, align 4
  %28 = insertvalue { ptr, i32 } poison, ptr %26, 0
  %29 = insertvalue { ptr, i32 } %28, i32 %27, 1
  resume { ptr, i32 } %29
}