; Function Attrs: mustprogress uwtable
define internal noundef i32 @_ZN2cv12cpu_baselineL10normL2_64fEPKdPKhPdii(ptr noundef readonly captures(none) %0, ptr noundef readonly %1, ptr noundef captures(none) %2, i32 noundef %3, i32 noundef %4) #0 personality ptr @__gxx_personality_v0 {
  %6 = alloca %"class.cv::utils::trace::details::Region", align 8
  call void @llvm.lifetime.start.p0(i64 16, ptr nonnull %6) #17
  call void @_ZN2cv5utils5trace7details6RegionC1ERKNS3_21LocationStaticStorageE(ptr noundef nonnull align 8 dereferenceable(12) %6, ptr noundef nonnull align 8 dereferenceable(32) @_ZZN2cv12cpu_baselineL10normL2_64fEPKdPKhPdiiE25__cv_trace_location_fn648)
  %7 = load double, ptr %2, align 8, !tbaa !36
  %.not.i = icmp eq ptr %1, null
  br i1 %.not.i, label %17, label %.preheader27.i

.preheader27.i:                                   ; preds = %5
  %8 = icmp sgt i32 %3, 0
  br i1 %8, label %.lr.ph34.i, label %.loopexit

.lr.ph34.i:                                       ; preds = %.preheader27.i
  %9 = icmp sgt i32 %4, 0
  %10 = sext i32 %4 to i64
  br i1 %9, label %.lr.ph34.split.us.preheader.i, label %.loopexit

.lr.ph34.split.us.preheader.i:                    ; preds = %.lr.ph34.i
  %wide.trip.count42.i = zext nneg i32 %3 to i64
  %wide.trip.count.i = zext nneg i32 %4 to i64
  br label %.lr.ph34.split.us.i

.lr.ph34.split.us.i:                              ; preds = %..loopexit_crit_edge.us.i, %.lr.ph34.split.us.preheader.i
  %indvars.iv39.i = phi i64 [ 0, %.lr.ph34.split.us.preheader.i ], [ %indvars.iv.next40.i, %..loopexit_crit_edge.us.i ]
  %.033.us.i = phi ptr [ %0, %.lr.ph34.split.us.preheader.i ], [ %16, %..loopexit_crit_edge.us.i ]
  %.131.us.i = phi double [ %7, %.lr.ph34.split.us.preheader.i ], [ %.3.us.i, %..loopexit_crit_edge.us.i ]
  %11 = getelementptr inbounds nuw i8, ptr %1, i64 %indvars.iv39.i
  %12 = load i8, ptr %11, align 1, !tbaa !12
  %.not26.us.i = icmp eq i8 %12, 0
  br i1 %.not26.us.i, label %..loopexit_crit_edge.us.i, label %.preheader.us.i

.preheader.us.i:                                  ; preds = %.lr.ph34.split.us.i, %.preheader.us.i
  %indvars.iv.i = phi i64 [ %indvars.iv.next.i, %.preheader.us.i ], [ 0, %.lr.ph34.split.us.i ]
  %.229.us.i = phi double [ %15, %.preheader.us.i ], [ %.131.us.i, %.lr.ph34.split.us.i ]
  %13 = getelementptr inbounds nuw double, ptr %.033.us.i, i64 %indvars.iv.i
  %14 = load double, ptr %13, align 8, !tbaa !36
  %15 = call double @llvm.fmuladd.f64(double %14, double %14, double %.229.us.i)
  %indvars.iv.next.i = add nuw nsw i64 %indvars.iv.i, 1
  %exitcond.not.i = icmp eq i64 %indvars.iv.next.i, %wide.trip.count.i
  br i1 %exitcond.not.i, label %..loopexit_crit_edge.us.i, label %.preheader.us.i, !llvm.loop !80

..loopexit_crit_edge.us.i:                        ; preds = %.preheader.us.i, %.lr.ph34.split.us.i
  %.3.us.i = phi double [ %.131.us.i, %.lr.ph34.split.us.i ], [ %15, %.preheader.us.i ]
  %indvars.iv.next40.i = add nuw nsw i64 %indvars.iv39.i, 1
  %16 = getelementptr inbounds nuw double, ptr %.033.us.i, i64 %10
  %exitcond43.not.i = icmp eq i64 %indvars.iv.next40.i, %wide.trip.count42.i
  br i1 %exitcond43.not.i, label %.loopexit, label %.lr.ph34.split.us.i, !llvm.loop !81

17:                                               ; preds = %5
  %18 = mul nsw i32 %4, %3
  %19 = icmp sgt i32 %18, 0
  br i1 %19, label %.lr.ph.preheader.i.i, label %_ZNK2cv12cpu_baseline11NormL2_SIMDIddEclEPKdi.exit.i

.lr.ph.preheader.i.i:                             ; preds = %17
  %wide.trip.count.i.i = zext nneg i32 %18 to i64
  br label %.lr.ph.i.i

.lr.ph.i.i:                                       ; preds = %.lr.ph.i.i, %.lr.ph.preheader.i.i
  %indvars.iv.i.i = phi i64 [ 0, %.lr.ph.preheader.i.i ], [ %indvars.iv.next.i.i, %.lr.ph.i.i ]
  %.010.i.i = phi double [ 0.000000e+00, %.lr.ph.preheader.i.i ], [ %22, %.lr.ph.i.i ]
  %20 = getelementptr inbounds nuw double, ptr %0, i64 %indvars.iv.i.i
  %21 = load double, ptr %20, align 8, !tbaa !36
  %22 = call double @llvm.fmuladd.f64(double %21, double %21, double %.010.i.i)
  %indvars.iv.next.i.i = add nuw nsw i64 %indvars.iv.i.i, 1
  %exitcond.not.i.i = icmp eq i64 %indvars.iv.next.i.i, %wide.trip.count.i.i
  br i1 %exitcond.not.i.i, label %_ZNK2cv12cpu_baseline11NormL2_SIMDIddEclEPKdi.exit.i, label %.lr.ph.i.i, !llvm.loop !82

_ZNK2cv12cpu_baseline11NormL2_SIMDIddEclEPKdi.exit.i: ; preds = %.lr.ph.i.i, %17
  %.0.lcssa.i.i = phi double [ 0.000000e+00, %17 ], [ %22, %.lr.ph.i.i ]
  %23 = fadd double %7, %.0.lcssa.i.i
  br label %.loopexit

.loopexit:                                        ; preds = %..loopexit_crit_edge.us.i, %_ZNK2cv12cpu_baseline11NormL2_SIMDIddEclEPKdi.exit.i, %.lr.ph34.i, %.preheader27.i
  %.024.i = phi double [ %23, %_ZNK2cv12cpu_baseline11NormL2_SIMDIddEclEPKdi.exit.i ], [ %7, %.preheader27.i ], [ %7, %.lr.ph34.i ], [ %.3.us.i, %..loopexit_crit_edge.us.i ]
  store double %.024.i, ptr %2, align 8, !tbaa !36
  %24 = getelementptr inbounds nuw i8, ptr %6, i64 8
  %25 = load i32, ptr %24, align 8, !tbaa !7
  %.not.i6 = icmp eq i32 %25, 0
  br i1 %.not.i6, label %_ZN2cv5utils5trace7details6RegionD2Ev.exit, label %26

26:                                               ; preds = %.loopexit
  invoke void @_ZN2cv5utils5trace7details6Region7destroyEv(ptr noundef nonnull align 8 dereferenceable(12) %6)
          to label %_ZN2cv5utils5trace7details6RegionD2Ev.exit unwind label %27

27:                                               ; preds = %26
  %28 = landingpad { ptr, i32 }
          catch ptr null
  %29 = extractvalue { ptr, i32 } %28, 0
  call void @__clang_call_terminate(ptr %29) #18
  unreachable

_ZN2cv5utils5trace7details6RegionD2Ev.exit:       ; preds = %.loopexit, %26
  call void @llvm.lifetime.end.p0(i64 16, ptr nonnull %6) #17
  ret i32 0
}